#include <math.h>
#include <stdio.h>
#include <stdlib.h>
#include <string.h>

int main()
{
    int i,k,e;
    char a[100],b[100];
    scanf("%s",a);
    scanf("%s",b); 
    for(i=1;i<=strlen(a);i++)
    {
                            for(k=0;k<strlen(a)-i;k++)
                            {
                                                      if(a[k+1]>a[k])
                                                      {
                                                                             e=a[k+1];
                                                                             a[k+1]=a[k];
                                                                             a[k]=e;
                                                      }
                            }
    }
        for(i=1;i<=strlen(b);i++)
    {
                            for(k=0;k<strlen(b)-i;k++)
                            {
                                                      if(b[k+1]-b[k]>0)
                                                      {
                                                                             e=b[k+1];
                                                                             b[k+1]=b[k];
                                                                             b[k]=e;
                                                      }
                            }
    }
    if(strcmp(a,b)==0)
    printf("YES");
    else
    printf("NO");
    return 0;
}